ARM GAS  C:\Users\Teodor\AppData\Local\Temp\ccw4j8II.s 			page 1


   1              		.cpu cortex-m4
   2              		.arch armv7e-m
   3              		.fpu fpv4-sp-d16
   4              		.eabi_attribute 27, 1
   5              		.eabi_attribute 28, 1
   6              		.eabi_attribute 20, 1
   7              		.eabi_attribute 21, 1
   8              		.eabi_attribute 23, 3
   9              		.eabi_attribute 24, 1
  10              		.eabi_attribute 25, 1
  11              		.eabi_attribute 26, 1
  12              		.eabi_attribute 30, 1
  13              		.eabi_attribute 34, 1
  14              		.eabi_attribute 18, 4
  15              		.file	"GPIO.c"
  16              		.text
  17              	.Ltext0:
  18              		.cfi_sections	.debug_frame
  19              		.section	.text.GPIO_Init,"ax",%progbits
  20              		.align	1
  21              		.global	GPIO_Init
  22              		.syntax unified
  23              		.thumb
  24              		.thumb_func
  26              	GPIO_Init:
  27              	.LVL0:
  28              	.LFB130:
  29              		.file 1 "Drivers/GPIO/GPIO.c"
   1:Drivers/GPIO/GPIO.c **** 
   2:Drivers/GPIO/GPIO.c **** #include "GPIO.h"
   3:Drivers/GPIO/GPIO.c **** #include "stm32f4xx.h"
   4:Drivers/GPIO/GPIO.c **** 
   5:Drivers/GPIO/GPIO.c **** 
   6:Drivers/GPIO/GPIO.c **** 
   7:Drivers/GPIO/GPIO.c **** void GPIO_Init(GPIO_TypeDef  *GPIOx, GPIO_InitTypeDef *GPIO_Init)
   8:Drivers/GPIO/GPIO.c **** {
  30              		.loc 1 8 1 view -0
  31              		.cfi_startproc
  32              		@ args = 0, pretend = 0, frame = 0
  33              		@ frame_needed = 0, uses_anonymous_args = 0
   9:Drivers/GPIO/GPIO.c ****   uint32_t position;
  34              		.loc 1 9 3 view .LVU1
  10:Drivers/GPIO/GPIO.c ****   uint32_t ioposition = 0x00U;
  35              		.loc 1 10 3 view .LVU2
  11:Drivers/GPIO/GPIO.c ****   uint32_t iocurrent = 0x00U;
  36              		.loc 1 11 3 view .LVU3
  12:Drivers/GPIO/GPIO.c ****   uint32_t temp = 0x00U;
  37              		.loc 1 12 3 view .LVU4
  13:Drivers/GPIO/GPIO.c **** 
  14:Drivers/GPIO/GPIO.c ****   for(position = 0U; position < GPIO_NUMBER; position++)
  38              		.loc 1 14 3 view .LVU5
  39              		.loc 1 14 16 is_stmt 0 view .LVU6
  40 0000 0023     		movs	r3, #0
  41              	.LVL1:
  42              		.loc 1 14 22 is_stmt 1 view .LVU7
  43              		.loc 1 14 3 is_stmt 0 view .LVU8
  44 0002 0F2B     		cmp	r3, #15
ARM GAS  C:\Users\Teodor\AppData\Local\Temp\ccw4j8II.s 			page 2


  45 0004 67D8     		bhi	.L11
   8:Drivers/GPIO/GPIO.c ****   uint32_t position;
  46              		.loc 1 8 1 view .LVU9
  47 0006 30B5     		push	{r4, r5, lr}
  48              	.LCFI0:
  49              		.cfi_def_cfa_offset 12
  50              		.cfi_offset 4, -12
  51              		.cfi_offset 5, -8
  52              		.cfi_offset 14, -4
  53 0008 2AE0     		b	.L7
  54              	.LVL2:
  55              	.L4:
  15:Drivers/GPIO/GPIO.c ****   {
  16:Drivers/GPIO/GPIO.c ****     ioposition = 0x01U << position;
  17:Drivers/GPIO/GPIO.c ****     iocurrent = (uint32_t)(GPIO_Init->Pin) & ioposition;
  18:Drivers/GPIO/GPIO.c **** 
  19:Drivers/GPIO/GPIO.c ****     if(iocurrent == ioposition)
  20:Drivers/GPIO/GPIO.c ****     {
  21:Drivers/GPIO/GPIO.c ****       if(((GPIO_Init->Mode & GPIO_MODE) == MODE_OUTPUT) || \
  22:Drivers/GPIO/GPIO.c ****           (GPIO_Init->Mode & GPIO_MODE) == MODE_AF)
  23:Drivers/GPIO/GPIO.c ****       {
  24:Drivers/GPIO/GPIO.c ****         temp = GPIOx->OSPEEDR; 
  25:Drivers/GPIO/GPIO.c ****         temp &= ~(GPIO_OSPEEDER_OSPEEDR0 << (position * 2U));
  26:Drivers/GPIO/GPIO.c ****         temp |= (GPIO_Init->Speed << (position * 2U));
  27:Drivers/GPIO/GPIO.c ****         GPIOx->OSPEEDR = temp;
  28:Drivers/GPIO/GPIO.c ****         temp = GPIOx->OTYPER;
  29:Drivers/GPIO/GPIO.c ****         temp &= ~(GPIO_OTYPER_OT_0 << position) ;
  30:Drivers/GPIO/GPIO.c ****         temp |= (((GPIO_Init->Mode & OUTPUT_TYPE) >> OUTPUT_TYPE_Pos) << position);
  31:Drivers/GPIO/GPIO.c ****         GPIOx->OTYPER = temp;
  32:Drivers/GPIO/GPIO.c ****        }
  33:Drivers/GPIO/GPIO.c **** 
  34:Drivers/GPIO/GPIO.c ****       if((GPIO_Init->Mode & GPIO_MODE) != MODE_ANALOG)
  56              		.loc 1 34 7 is_stmt 1 view .LVU10
  57              		.loc 1 34 20 is_stmt 0 view .LVU11
  58 000a 4A68     		ldr	r2, [r1, #4]
  59              		.loc 1 34 27 view .LVU12
  60 000c 02F00302 		and	r2, r2, #3
  61              		.loc 1 34 9 view .LVU13
  62 0010 032A     		cmp	r2, #3
  63 0012 0CD0     		beq	.L5
  35:Drivers/GPIO/GPIO.c ****       {
  36:Drivers/GPIO/GPIO.c ****         temp = GPIOx->PUPDR;
  64              		.loc 1 36 9 is_stmt 1 view .LVU14
  65              		.loc 1 36 14 is_stmt 0 view .LVU15
  66 0014 C268     		ldr	r2, [r0, #12]
  67              	.LVL3:
  37:Drivers/GPIO/GPIO.c ****         temp &= ~(GPIO_PUPDR_PUPDR0 << (position * 2U));
  68              		.loc 1 37 9 is_stmt 1 view .LVU16
  69              		.loc 1 37 50 is_stmt 0 view .LVU17
  70 0016 5C00     		lsls	r4, r3, #1
  71              		.loc 1 37 37 view .LVU18
  72 0018 4FF0030C 		mov	ip, #3
  73 001c 0CFA04FC 		lsl	ip, ip, r4
  74              		.loc 1 37 14 view .LVU19
  75 0020 22EA0C0C 		bic	ip, r2, ip
  76              	.LVL4:
  38:Drivers/GPIO/GPIO.c ****         temp |= ((GPIO_Init->Pull) << (position * 2U));
ARM GAS  C:\Users\Teodor\AppData\Local\Temp\ccw4j8II.s 			page 3


  77              		.loc 1 38 9 is_stmt 1 view .LVU20
  78              		.loc 1 38 28 is_stmt 0 view .LVU21
  79 0024 8A68     		ldr	r2, [r1, #8]
  80              		.loc 1 38 36 view .LVU22
  81 0026 A240     		lsls	r2, r2, r4
  82              		.loc 1 38 14 view .LVU23
  83 0028 42EA0C02 		orr	r2, r2, ip
  84              	.LVL5:
  39:Drivers/GPIO/GPIO.c ****         GPIOx->PUPDR = temp;
  85              		.loc 1 39 9 is_stmt 1 view .LVU24
  86              		.loc 1 39 22 is_stmt 0 view .LVU25
  87 002c C260     		str	r2, [r0, #12]
  88              	.LVL6:
  89              	.L5:
  40:Drivers/GPIO/GPIO.c ****       }
  41:Drivers/GPIO/GPIO.c ****       if((GPIO_Init->Mode & GPIO_MODE) == MODE_AF)
  90              		.loc 1 41 7 is_stmt 1 view .LVU26
  91              		.loc 1 41 20 is_stmt 0 view .LVU27
  92 002e 4A68     		ldr	r2, [r1, #4]
  93              		.loc 1 41 27 view .LVU28
  94 0030 02F00302 		and	r2, r2, #3
  95              		.loc 1 41 9 view .LVU29
  96 0034 022A     		cmp	r2, #2
  97 0036 38D0     		beq	.L12
  98              	.L6:
  42:Drivers/GPIO/GPIO.c ****       {
  43:Drivers/GPIO/GPIO.c ****         temp = GPIOx->AFR[position >> 3U];
  44:Drivers/GPIO/GPIO.c ****         temp &= ~(0xFU << ((uint32_t)(position & 0x07U) * 4U)) ;
  45:Drivers/GPIO/GPIO.c ****         temp |= ((uint32_t)(GPIO_Init->Alternate) << (((uint32_t)position & 0x07U) * 4U));
  46:Drivers/GPIO/GPIO.c ****         GPIOx->AFR[position >> 3U] = temp;
  47:Drivers/GPIO/GPIO.c ****       }
  48:Drivers/GPIO/GPIO.c ****       temp = GPIOx->MODER;
  99              		.loc 1 48 7 is_stmt 1 view .LVU30
 100              		.loc 1 48 12 is_stmt 0 view .LVU31
 101 0038 0268     		ldr	r2, [r0]
 102              	.LVL7:
  49:Drivers/GPIO/GPIO.c ****       temp &= ~(GPIO_MODER_MODER0 << (position * 2U));
 103              		.loc 1 49 7 is_stmt 1 view .LVU32
 104              		.loc 1 49 48 is_stmt 0 view .LVU33
 105 003a 4FEA430E 		lsl	lr, r3, #1
 106              		.loc 1 49 35 view .LVU34
 107 003e 4FF0030C 		mov	ip, #3
 108 0042 0CFA0EFC 		lsl	ip, ip, lr
 109              		.loc 1 49 12 view .LVU35
 110 0046 22EA0C0C 		bic	ip, r2, ip
 111              	.LVL8:
  50:Drivers/GPIO/GPIO.c ****       temp |= ((GPIO_Init->Mode & GPIO_MODE) << (position * 2U));
 112              		.loc 1 50 7 is_stmt 1 view .LVU36
 113              		.loc 1 50 26 is_stmt 0 view .LVU37
 114 004a 4A68     		ldr	r2, [r1, #4]
 115              		.loc 1 50 33 view .LVU38
 116 004c 02F00302 		and	r2, r2, #3
 117              		.loc 1 50 46 view .LVU39
 118 0050 02FA0EF2 		lsl	r2, r2, lr
 119              		.loc 1 50 12 view .LVU40
 120 0054 42EA0C02 		orr	r2, r2, ip
 121              	.LVL9:
ARM GAS  C:\Users\Teodor\AppData\Local\Temp\ccw4j8II.s 			page 4


  51:Drivers/GPIO/GPIO.c ****       GPIOx->MODER = temp;
 122              		.loc 1 51 7 is_stmt 1 view .LVU41
 123              		.loc 1 51 20 is_stmt 0 view .LVU42
 124 0058 0260     		str	r2, [r0]
 125              	.LVL10:
 126              	.L3:
  14:Drivers/GPIO/GPIO.c ****   {
 127              		.loc 1 14 46 is_stmt 1 discriminator 2 view .LVU43
  14:Drivers/GPIO/GPIO.c ****   {
 128              		.loc 1 14 54 is_stmt 0 discriminator 2 view .LVU44
 129 005a 0133     		adds	r3, r3, #1
 130              	.LVL11:
  14:Drivers/GPIO/GPIO.c ****   {
 131              		.loc 1 14 22 is_stmt 1 discriminator 2 view .LVU45
  14:Drivers/GPIO/GPIO.c ****   {
 132              		.loc 1 14 3 is_stmt 0 discriminator 2 view .LVU46
 133 005c 0F2B     		cmp	r3, #15
 134 005e 39D8     		bhi	.L13
 135              	.LVL12:
 136              	.L7:
  16:Drivers/GPIO/GPIO.c ****     iocurrent = (uint32_t)(GPIO_Init->Pin) & ioposition;
 137              		.loc 1 16 5 is_stmt 1 view .LVU47
  16:Drivers/GPIO/GPIO.c ****     iocurrent = (uint32_t)(GPIO_Init->Pin) & ioposition;
 138              		.loc 1 16 16 is_stmt 0 view .LVU48
 139 0060 0122     		movs	r2, #1
 140 0062 9A40     		lsls	r2, r2, r3
 141              	.LVL13:
  17:Drivers/GPIO/GPIO.c **** 
 142              		.loc 1 17 5 is_stmt 1 view .LVU49
  19:Drivers/GPIO/GPIO.c ****     {
 143              		.loc 1 19 5 view .LVU50
  19:Drivers/GPIO/GPIO.c ****     {
 144              		.loc 1 19 7 is_stmt 0 view .LVU51
 145 0064 0C68     		ldr	r4, [r1]
 146 0066 32EA0404 		bics	r4, r2, r4
 147 006a F6D1     		bne	.L3
  21:Drivers/GPIO/GPIO.c ****           (GPIO_Init->Mode & GPIO_MODE) == MODE_AF)
 148              		.loc 1 21 7 is_stmt 1 view .LVU52
  21:Drivers/GPIO/GPIO.c ****           (GPIO_Init->Mode & GPIO_MODE) == MODE_AF)
 149              		.loc 1 21 28 is_stmt 0 view .LVU53
 150 006c 4C68     		ldr	r4, [r1, #4]
 151 006e 04F0030C 		and	ip, r4, #3
  21:Drivers/GPIO/GPIO.c ****           (GPIO_Init->Mode & GPIO_MODE) == MODE_AF)
 152              		.loc 1 21 57 view .LVU54
 153 0072 0CF1FF3C 		add	ip, ip, #-1
  21:Drivers/GPIO/GPIO.c ****           (GPIO_Init->Mode & GPIO_MODE) == MODE_AF)
 154              		.loc 1 21 9 view .LVU55
 155 0076 BCF1010F 		cmp	ip, #1
 156 007a C6D8     		bhi	.L4
  24:Drivers/GPIO/GPIO.c ****         temp &= ~(GPIO_OSPEEDER_OSPEEDR0 << (position * 2U));
 157              		.loc 1 24 9 is_stmt 1 view .LVU56
  24:Drivers/GPIO/GPIO.c ****         temp &= ~(GPIO_OSPEEDER_OSPEEDR0 << (position * 2U));
 158              		.loc 1 24 14 is_stmt 0 view .LVU57
 159 007c 8468     		ldr	r4, [r0, #8]
 160              	.LVL14:
  25:Drivers/GPIO/GPIO.c ****         temp |= (GPIO_Init->Speed << (position * 2U));
 161              		.loc 1 25 9 is_stmt 1 view .LVU58
ARM GAS  C:\Users\Teodor\AppData\Local\Temp\ccw4j8II.s 			page 5


  25:Drivers/GPIO/GPIO.c ****         temp |= (GPIO_Init->Speed << (position * 2U));
 162              		.loc 1 25 55 is_stmt 0 view .LVU59
 163 007e 5D00     		lsls	r5, r3, #1
  25:Drivers/GPIO/GPIO.c ****         temp |= (GPIO_Init->Speed << (position * 2U));
 164              		.loc 1 25 42 view .LVU60
 165 0080 4FF0030C 		mov	ip, #3
 166 0084 0CFA05FC 		lsl	ip, ip, r5
  25:Drivers/GPIO/GPIO.c ****         temp |= (GPIO_Init->Speed << (position * 2U));
 167              		.loc 1 25 14 view .LVU61
 168 0088 24EA0C0C 		bic	ip, r4, ip
 169              	.LVL15:
  26:Drivers/GPIO/GPIO.c ****         GPIOx->OSPEEDR = temp;
 170              		.loc 1 26 9 is_stmt 1 view .LVU62
  26:Drivers/GPIO/GPIO.c ****         GPIOx->OSPEEDR = temp;
 171              		.loc 1 26 27 is_stmt 0 view .LVU63
 172 008c CC68     		ldr	r4, [r1, #12]
  26:Drivers/GPIO/GPIO.c ****         GPIOx->OSPEEDR = temp;
 173              		.loc 1 26 35 view .LVU64
 174 008e AC40     		lsls	r4, r4, r5
  26:Drivers/GPIO/GPIO.c ****         GPIOx->OSPEEDR = temp;
 175              		.loc 1 26 14 view .LVU65
 176 0090 44EA0C04 		orr	r4, r4, ip
 177              	.LVL16:
  27:Drivers/GPIO/GPIO.c ****         temp = GPIOx->OTYPER;
 178              		.loc 1 27 9 is_stmt 1 view .LVU66
  27:Drivers/GPIO/GPIO.c ****         temp = GPIOx->OTYPER;
 179              		.loc 1 27 24 is_stmt 0 view .LVU67
 180 0094 8460     		str	r4, [r0, #8]
 181              	.LVL17:
  28:Drivers/GPIO/GPIO.c ****         temp &= ~(GPIO_OTYPER_OT_0 << position) ;
 182              		.loc 1 28 9 is_stmt 1 view .LVU68
  28:Drivers/GPIO/GPIO.c ****         temp &= ~(GPIO_OTYPER_OT_0 << position) ;
 183              		.loc 1 28 14 is_stmt 0 view .LVU69
 184 0096 4468     		ldr	r4, [r0, #4]
 185              	.LVL18:
  29:Drivers/GPIO/GPIO.c ****         temp |= (((GPIO_Init->Mode & OUTPUT_TYPE) >> OUTPUT_TYPE_Pos) << position);
 186              		.loc 1 29 9 is_stmt 1 view .LVU70
  29:Drivers/GPIO/GPIO.c ****         temp |= (((GPIO_Init->Mode & OUTPUT_TYPE) >> OUTPUT_TYPE_Pos) << position);
 187              		.loc 1 29 14 is_stmt 0 view .LVU71
 188 0098 24EA0204 		bic	r4, r4, r2
 189              	.LVL19:
  30:Drivers/GPIO/GPIO.c ****         GPIOx->OTYPER = temp;
 190              		.loc 1 30 9 is_stmt 1 view .LVU72
  30:Drivers/GPIO/GPIO.c ****         GPIOx->OTYPER = temp;
 191              		.loc 1 30 29 is_stmt 0 view .LVU73
 192 009c 4A68     		ldr	r2, [r1, #4]
 193              	.LVL20:
  30:Drivers/GPIO/GPIO.c ****         GPIOx->OTYPER = temp;
 194              		.loc 1 30 51 view .LVU74
 195 009e C2F30012 		ubfx	r2, r2, #4, #1
  30:Drivers/GPIO/GPIO.c ****         GPIOx->OTYPER = temp;
 196              		.loc 1 30 71 view .LVU75
 197 00a2 9A40     		lsls	r2, r2, r3
  30:Drivers/GPIO/GPIO.c ****         GPIOx->OTYPER = temp;
 198              		.loc 1 30 14 view .LVU76
 199 00a4 2243     		orrs	r2, r2, r4
 200              	.LVL21:
ARM GAS  C:\Users\Teodor\AppData\Local\Temp\ccw4j8II.s 			page 6


  31:Drivers/GPIO/GPIO.c ****        }
 201              		.loc 1 31 9 is_stmt 1 view .LVU77
  31:Drivers/GPIO/GPIO.c ****        }
 202              		.loc 1 31 23 is_stmt 0 view .LVU78
 203 00a6 4260     		str	r2, [r0, #4]
 204 00a8 AFE7     		b	.L4
 205              	.LVL22:
 206              	.L12:
  43:Drivers/GPIO/GPIO.c ****         temp &= ~(0xFU << ((uint32_t)(position & 0x07U) * 4U)) ;
 207              		.loc 1 43 9 is_stmt 1 view .LVU79
  43:Drivers/GPIO/GPIO.c ****         temp &= ~(0xFU << ((uint32_t)(position & 0x07U) * 4U)) ;
 208              		.loc 1 43 36 is_stmt 0 view .LVU80
 209 00aa DC08     		lsrs	r4, r3, #3
  43:Drivers/GPIO/GPIO.c ****         temp &= ~(0xFU << ((uint32_t)(position & 0x07U) * 4U)) ;
 210              		.loc 1 43 14 view .LVU81
 211 00ac 0834     		adds	r4, r4, #8
 212 00ae 50F82450 		ldr	r5, [r0, r4, lsl #2]
 213              	.LVL23:
  44:Drivers/GPIO/GPIO.c ****         temp |= ((uint32_t)(GPIO_Init->Alternate) << (((uint32_t)position & 0x07U) * 4U));
 214              		.loc 1 44 9 is_stmt 1 view .LVU82
  44:Drivers/GPIO/GPIO.c ****         temp |= ((uint32_t)(GPIO_Init->Alternate) << (((uint32_t)position & 0x07U) * 4U));
 215              		.loc 1 44 28 is_stmt 0 view .LVU83
 216 00b2 03F00702 		and	r2, r3, #7
  44:Drivers/GPIO/GPIO.c ****         temp |= ((uint32_t)(GPIO_Init->Alternate) << (((uint32_t)position & 0x07U) * 4U));
 217              		.loc 1 44 57 view .LVU84
 218 00b6 4FEA820C 		lsl	ip, r2, #2
  44:Drivers/GPIO/GPIO.c ****         temp |= ((uint32_t)(GPIO_Init->Alternate) << (((uint32_t)position & 0x07U) * 4U));
 219              		.loc 1 44 24 view .LVU85
 220 00ba 0F22     		movs	r2, #15
 221 00bc 02FA0CF2 		lsl	r2, r2, ip
  44:Drivers/GPIO/GPIO.c ****         temp |= ((uint32_t)(GPIO_Init->Alternate) << (((uint32_t)position & 0x07U) * 4U));
 222              		.loc 1 44 14 view .LVU86
 223 00c0 25EA020E 		bic	lr, r5, r2
 224              	.LVL24:
  45:Drivers/GPIO/GPIO.c ****         GPIOx->AFR[position >> 3U] = temp;
 225              		.loc 1 45 9 is_stmt 1 view .LVU87
  45:Drivers/GPIO/GPIO.c ****         GPIOx->AFR[position >> 3U] = temp;
 226              		.loc 1 45 38 is_stmt 0 view .LVU88
 227 00c4 0A69     		ldr	r2, [r1, #16]
  45:Drivers/GPIO/GPIO.c ****         GPIOx->AFR[position >> 3U] = temp;
 228              		.loc 1 45 51 view .LVU89
 229 00c6 02FA0CF2 		lsl	r2, r2, ip
  45:Drivers/GPIO/GPIO.c ****         GPIOx->AFR[position >> 3U] = temp;
 230              		.loc 1 45 14 view .LVU90
 231 00ca 42EA0E02 		orr	r2, r2, lr
 232              	.LVL25:
  46:Drivers/GPIO/GPIO.c ****       }
 233              		.loc 1 46 9 is_stmt 1 view .LVU91
  46:Drivers/GPIO/GPIO.c ****       }
 234              		.loc 1 46 36 is_stmt 0 view .LVU92
 235 00ce 40F82420 		str	r2, [r0, r4, lsl #2]
 236 00d2 B1E7     		b	.L6
 237              	.LVL26:
 238              	.L13:
  52:Drivers/GPIO/GPIO.c ****     }
  53:Drivers/GPIO/GPIO.c ****   }
  54:Drivers/GPIO/GPIO.c **** }
ARM GAS  C:\Users\Teodor\AppData\Local\Temp\ccw4j8II.s 			page 7


 239              		.loc 1 54 1 view .LVU93
 240 00d4 30BD     		pop	{r4, r5, pc}
 241              	.LVL27:
 242              	.L11:
 243              	.LCFI1:
 244              		.cfi_def_cfa_offset 0
 245              		.cfi_restore 4
 246              		.cfi_restore 5
 247              		.cfi_restore 14
 248              		.loc 1 54 1 view .LVU94
 249 00d6 7047     		bx	lr
 250              		.cfi_endproc
 251              	.LFE130:
 253              		.section	.text.tooglePIN,"ax",%progbits
 254              		.align	1
 255              		.global	tooglePIN
 256              		.syntax unified
 257              		.thumb
 258              		.thumb_func
 260              	tooglePIN:
 261              	.LVL28:
 262              	.LFB131:
  55:Drivers/GPIO/GPIO.c **** 
  56:Drivers/GPIO/GPIO.c **** 
  57:Drivers/GPIO/GPIO.c **** void tooglePIN(GPIO_TypeDef *GPIOx, GPIO_PinMask_t GPIO_Pin)
  58:Drivers/GPIO/GPIO.c **** {
 263              		.loc 1 58 1 is_stmt 1 view -0
 264              		.cfi_startproc
 265              		@ args = 0, pretend = 0, frame = 0
 266              		@ frame_needed = 0, uses_anonymous_args = 0
 267              		@ link register save eliminated.
  59:Drivers/GPIO/GPIO.c ****   uint32_t odr;
 268              		.loc 1 59 3 view .LVU96
  60:Drivers/GPIO/GPIO.c ****   odr = GPIOx->ODR;
 269              		.loc 1 60 3 view .LVU97
 270              		.loc 1 60 7 is_stmt 0 view .LVU98
 271 0000 4369     		ldr	r3, [r0, #20]
 272              	.LVL29:
  61:Drivers/GPIO/GPIO.c ****   GPIOx->BSRR = ((odr & GPIO_Pin) << GPIO_NUMBER) | (~odr & GPIO_Pin); //taki trick
 273              		.loc 1 61 3 is_stmt 1 view .LVU99
 274              		.loc 1 61 23 is_stmt 0 view .LVU100
 275 0002 01EA0302 		and	r2, r1, r3
 276              		.loc 1 61 59 view .LVU101
 277 0006 21EA0301 		bic	r1, r1, r3
 278              	.LVL30:
 279              		.loc 1 61 51 view .LVU102
 280 000a 41EA0241 		orr	r1, r1, r2, lsl #16
 281              		.loc 1 61 15 view .LVU103
 282 000e 8161     		str	r1, [r0, #24]
  62:Drivers/GPIO/GPIO.c **** }
 283              		.loc 1 62 1 view .LVU104
 284 0010 7047     		bx	lr
 285              		.cfi_endproc
 286              	.LFE131:
 288              		.section	.text.GPIO_PinSet,"ax",%progbits
 289              		.align	1
 290              		.global	GPIO_PinSet
ARM GAS  C:\Users\Teodor\AppData\Local\Temp\ccw4j8II.s 			page 8


 291              		.syntax unified
 292              		.thumb
 293              		.thumb_func
 295              	GPIO_PinSet:
 296              	.LVL31:
 297              	.LFB132:
  63:Drivers/GPIO/GPIO.c **** 
  64:Drivers/GPIO/GPIO.c **** 
  65:Drivers/GPIO/GPIO.c **** void GPIO_PinSet(GPIO_TypeDef *GPIOx, GPIO_PinMask_t GPIO_Pin)
  66:Drivers/GPIO/GPIO.c **** {
 298              		.loc 1 66 1 is_stmt 1 view -0
 299              		.cfi_startproc
 300              		@ args = 0, pretend = 0, frame = 0
 301              		@ frame_needed = 0, uses_anonymous_args = 0
 302              		@ link register save eliminated.
  67:Drivers/GPIO/GPIO.c ****   GPIOx->BSRR = GPIO_Pin;
 303              		.loc 1 67 3 view .LVU106
 304              		.loc 1 67 15 is_stmt 0 view .LVU107
 305 0000 8161     		str	r1, [r0, #24]
  68:Drivers/GPIO/GPIO.c **** }
 306              		.loc 1 68 1 view .LVU108
 307 0002 7047     		bx	lr
 308              		.cfi_endproc
 309              	.LFE132:
 311              		.section	.text.GPIO_PinReset,"ax",%progbits
 312              		.align	1
 313              		.global	GPIO_PinReset
 314              		.syntax unified
 315              		.thumb
 316              		.thumb_func
 318              	GPIO_PinReset:
 319              	.LVL32:
 320              	.LFB133:
  69:Drivers/GPIO/GPIO.c **** 
  70:Drivers/GPIO/GPIO.c **** void GPIO_PinReset(GPIO_TypeDef *GPIOx, GPIO_PinMask_t GPIO_Pin)
  71:Drivers/GPIO/GPIO.c **** {
 321              		.loc 1 71 1 is_stmt 1 view -0
 322              		.cfi_startproc
 323              		@ args = 0, pretend = 0, frame = 0
 324              		@ frame_needed = 0, uses_anonymous_args = 0
 325              		@ link register save eliminated.
  72:Drivers/GPIO/GPIO.c ****   uint32_t odr;
 326              		.loc 1 72 3 view .LVU110
  73:Drivers/GPIO/GPIO.c ****   odr = GPIOx->ODR;
 327              		.loc 1 73 3 view .LVU111
 328              		.loc 1 73 7 is_stmt 0 view .LVU112
 329 0000 4369     		ldr	r3, [r0, #20]
 330              	.LVL33:
  74:Drivers/GPIO/GPIO.c ****   GPIOx->BSRR = ((odr & GPIO_Pin) << GPIO_NUMBER);
 331              		.loc 1 74 3 is_stmt 1 view .LVU113
 332              		.loc 1 74 23 is_stmt 0 view .LVU114
 333 0002 1940     		ands	r1, r1, r3
 334              	.LVL34:
 335              		.loc 1 74 35 view .LVU115
 336 0004 0904     		lsls	r1, r1, #16
 337              		.loc 1 74 15 view .LVU116
 338 0006 8161     		str	r1, [r0, #24]
ARM GAS  C:\Users\Teodor\AppData\Local\Temp\ccw4j8II.s 			page 9


  75:Drivers/GPIO/GPIO.c **** }
 339              		.loc 1 75 1 view .LVU117
 340 0008 7047     		bx	lr
 341              		.cfi_endproc
 342              	.LFE133:
 344              		.section	.text.Led_Cfg,"ax",%progbits
 345              		.align	1
 346              		.global	Led_Cfg
 347              		.syntax unified
 348              		.thumb
 349              		.thumb_func
 351              	Led_Cfg:
 352              	.LFB134:
  76:Drivers/GPIO/GPIO.c **** 
  77:Drivers/GPIO/GPIO.c **** void Led_Cfg(void)
  78:Drivers/GPIO/GPIO.c **** {
 353              		.loc 1 78 1 is_stmt 1 view -0
 354              		.cfi_startproc
 355              		@ args = 0, pretend = 0, frame = 24
 356              		@ frame_needed = 0, uses_anonymous_args = 0
 357 0000 00B5     		push	{lr}
 358              	.LCFI2:
 359              		.cfi_def_cfa_offset 4
 360              		.cfi_offset 14, -4
 361 0002 87B0     		sub	sp, sp, #28
 362              	.LCFI3:
 363              		.cfi_def_cfa_offset 32
  79:Drivers/GPIO/GPIO.c **** 	/*tooglePIN(GPIOC,Psm13);*/
  80:Drivers/GPIO/GPIO.c **** 	RCC->AHB1ENR |= RCC_AHB1ENR_GPIOCEN;
 364              		.loc 1 80 2 view .LVU119
 365              		.loc 1 80 15 is_stmt 0 view .LVU120
 366 0004 0B4A     		ldr	r2, .L19
 367 0006 136B     		ldr	r3, [r2, #48]
 368 0008 43F00403 		orr	r3, r3, #4
 369 000c 1363     		str	r3, [r2, #48]
  81:Drivers/GPIO/GPIO.c **** 
  82:Drivers/GPIO/GPIO.c **** 	GPIO_InitTypeDef GPIO_InitStruct = {0};
 370              		.loc 1 82 2 is_stmt 1 view .LVU121
 371              		.loc 1 82 19 is_stmt 0 view .LVU122
 372 000e 0023     		movs	r3, #0
 373 0010 0193     		str	r3, [sp, #4]
 374 0012 0293     		str	r3, [sp, #8]
 375 0014 0393     		str	r3, [sp, #12]
 376 0016 0493     		str	r3, [sp, #16]
 377 0018 0593     		str	r3, [sp, #20]
  83:Drivers/GPIO/GPIO.c **** 	/*Configure GPIO pins : PBPin PBPin PBPin */
  84:Drivers/GPIO/GPIO.c **** 	GPIO_InitStruct.Pin = GPIO_PIN_13;
 378              		.loc 1 84 2 is_stmt 1 view .LVU123
 379              		.loc 1 84 22 is_stmt 0 view .LVU124
 380 001a 4FF40053 		mov	r3, #8192
 381 001e 0193     		str	r3, [sp, #4]
  85:Drivers/GPIO/GPIO.c **** 	GPIO_InitStruct.Mode = GPIO_MODE_OUTPUT_OD;
 382              		.loc 1 85 2 is_stmt 1 view .LVU125
 383              		.loc 1 85 23 is_stmt 0 view .LVU126
 384 0020 1123     		movs	r3, #17
 385 0022 0293     		str	r3, [sp, #8]
  86:Drivers/GPIO/GPIO.c **** 	GPIO_InitStruct.Pull = GPIO_NOPULL;
ARM GAS  C:\Users\Teodor\AppData\Local\Temp\ccw4j8II.s 			page 10


 386              		.loc 1 86 2 is_stmt 1 view .LVU127
  87:Drivers/GPIO/GPIO.c **** 	GPIO_InitStruct.Speed = GPIO_SPEED_FREQ_LOW;
 387              		.loc 1 87 2 view .LVU128
  88:Drivers/GPIO/GPIO.c **** 	GPIO_Init(GPIOC, &GPIO_InitStruct);
 388              		.loc 1 88 2 view .LVU129
 389 0024 01A9     		add	r1, sp, #4
 390 0026 0448     		ldr	r0, .L19+4
 391 0028 FFF7FEFF 		bl	GPIO_Init
 392              	.LVL35:
  89:Drivers/GPIO/GPIO.c **** }
 393              		.loc 1 89 1 is_stmt 0 view .LVU130
 394 002c 07B0     		add	sp, sp, #28
 395              	.LCFI4:
 396              		.cfi_def_cfa_offset 4
 397              		@ sp needed
 398 002e 5DF804FB 		ldr	pc, [sp], #4
 399              	.L20:
 400 0032 00BF     		.align	2
 401              	.L19:
 402 0034 00380240 		.word	1073887232
 403 0038 00080240 		.word	1073874944
 404              		.cfi_endproc
 405              	.LFE134:
 407              		.section	.text.toggleLed,"ax",%progbits
 408              		.align	1
 409              		.global	toggleLed
 410              		.syntax unified
 411              		.thumb
 412              		.thumb_func
 414              	toggleLed:
 415              	.LFB135:
  90:Drivers/GPIO/GPIO.c **** 
  91:Drivers/GPIO/GPIO.c **** void toggleLed(void)
  92:Drivers/GPIO/GPIO.c **** {
 416              		.loc 1 92 1 is_stmt 1 view -0
 417              		.cfi_startproc
 418              		@ args = 0, pretend = 0, frame = 0
 419              		@ frame_needed = 0, uses_anonymous_args = 0
 420 0000 08B5     		push	{r3, lr}
 421              	.LCFI5:
 422              		.cfi_def_cfa_offset 8
 423              		.cfi_offset 3, -8
 424              		.cfi_offset 14, -4
  93:Drivers/GPIO/GPIO.c **** 	tooglePIN(GPIOC,Psm13);
 425              		.loc 1 93 2 view .LVU132
 426 0002 4FF40051 		mov	r1, #8192
 427 0006 0248     		ldr	r0, .L23
 428 0008 FFF7FEFF 		bl	tooglePIN
 429              	.LVL36:
  94:Drivers/GPIO/GPIO.c **** }...
 430              		.loc 1 94 1 is_stmt 0 view .LVU133
 431 000c 08BD     		pop	{r3, pc}
 432              	.L24:
 433 000e 00BF     		.align	2
 434              	.L23:
 435 0010 00080240 		.word	1073874944
 436              		.cfi_endproc
ARM GAS  C:\Users\Teodor\AppData\Local\Temp\ccw4j8II.s 			page 11


 437              	.LFE135:
 439              		.text
 440              	.Letext0:
 441              		.file 2 "d:\\gnu_tools\\gnu arm embedded toolchain\\10 2021.10\\arm-none-eabi\\include\\machine\\_
 442              		.file 3 "d:\\gnu_tools\\gnu arm embedded toolchain\\10 2021.10\\arm-none-eabi\\include\\sys\\_stdi
 443              		.file 4 "Drivers/CMSIS/Device/ST/STM32F4xx/Include/stm32f401xc.h"
 444              		.file 5 "Drivers/GPIO/GPIO.h"
ARM GAS  C:\Users\Teodor\AppData\Local\Temp\ccw4j8II.s 			page 12

